(dp1
S'failed'
p2
(lp3
sS'source_names'
p4
(lp5
S'.'
aS'/Users/mark/Documents/projects/cfn-secret-provider/src/cfn_provider.py'
p6
aS'tests/test_cfn_provider.py'
p7
aS'tests/test_cfn_secret_provider.py'
p8
aS'/Users/mark/Documents/projects/cfn-secret-provider/tests/test_cfn_provider.py'
p9
aS'tests/test_cfn_provider.py:test_validate'
p10
aS'tests/test_default_injecting_validator.py'
p11
aS'tests/test_cfn_secret_provider.py:test_defaults'
p12
aS'tests/test_cfn_provider.py:test_validate_request'
p13
aS'tests/test_cfn_secret_provider.py:test_create'
p14
asS'ids'
p15
(dp16
I1
(S'/Users/mark/Documents/projects/cfn-secret-provider/tests/test_cfn_secret_provider.py'
S'test_cfn_secret_provider'
Ntp17
sI2
(S'/Users/mark/Documents/projects/cfn-secret-provider/src/cfn_provider.py'
S'cfn_provider'
Ntp18
sI3
(S'/Users/mark/Documents/projects/cfn-secret-provider/tests/test_cfn_secret_provider.py'
S'test_cfn_secret_provider'
p19
S'test_create'
tp20
sI4
(S'/Users/mark/Documents/projects/cfn-secret-provider/tests/test_cfn_secret_provider.py'
g19
S'test_prevent_duplicate_create'
tp21
sI5
(S'/Users/mark/Documents/projects/cfn-secret-provider/tests/test_cfn_secret_provider.py'
g19
S'test_update_name'
tp22
sI6
(S'/Users/mark/Documents/projects/cfn-secret-provider/tests/test_cfn_secret_provider.py'
g19
S'test_prevent_duplicate_through_update'
tp23
sI7
(S'/Users/mark/Documents/projects/cfn-secret-provider/tests/test_cfn_secret_provider.py'
g19
S'test_create_no_return_secret'
tp24
sI8
(S'/Users/mark/Documents/projects/cfn-secret-provider/tests/test_cfn_provider.py'
S'test_cfn_provider'
p25
S'test_create'
tp26
sI9
(S'/Users/mark/Documents/projects/cfn-secret-provider/tests/test_cfn_provider.py'
g25
S'test_update_name'
tp27
sI10
(S'/Users/mark/Documents/projects/cfn-secret-provider/tests/test_cfn_secret_provider.py'
S'test_cfn_secret_provider'
p28
S'test_prrequest_duplicate_create'
tp29
sI11
(S'/Users/mark/Documents/projects/cfn-secret-provider/tests/test_cfn_secret_provider.py'
g28
S'test_prrequest_duplicate_through_update'
tp30
sI12
(S'/Users/mark/Documents/projects/cfn-secret-provider/tests/test_cfn_provider.py'
S'test_cfn_provider'
Ntp31
sI13
(S'/Users/mark/Documents/projects/cfn-secret-provider/tests/test_cfn_provider.py'
S'test_cfn_provider'
S'test_validate'
tp32
sI14
(S'/Users/mark/Documents/projects/cfn-secret-provider/tests/test_cfn_secret_provider.py'
S'test_cfn_secret_provider'
p33
S'test_request_duplicate_create'
tp34
sI15
(S'/Users/mark/Documents/projects/cfn-secret-provider/tests/test_cfn_secret_provider.py'
g33
S'test_request_duplicate_through_update'
tp35
sI16
(S'/Users/mark/Documents/projects/cfn-secret-provider/tests/test_default_injecting_validator.py'
S'test_default_injecting_validator'
S'test_default_injection'
tp36
sI17
(S'/Users/mark/Documents/projects/cfn-secret-provider/tests/test_cfn_secret_provider.py'
S'test_cfn_secret_provider'
S'test_defaults'
tp37
sI18
(S'/Users/mark/Documents/projects/cfn-secret-provider/tests/test_cfn_provider.py'
S'test_cfn_provider'
S'test_validate_request'
tp38
sI19
(S'/Users/mark/Documents/projects/cfn-secret-provider/tests/test_cfn_provider.py'
S'test_cfn_provider'
S'test_validate_default_response'
tp39
ss.