(dp1
S'failed'
p2
(lp3
S'8'
aS'9'
aS'10'
p4
aS'11'
p5
asS'source_names'
p6
(lp7
S'.'
aS'/Users/mark/Documents/projects/cfn-secret-provider/src/cfn_provider.py'
p8
aS'tests/test_cfn_provider.py'
p9
aS'tests/test_cfn_secret_provider.py'
p10
asS'ids'
p11
(dp12
I1
(S'/Users/mark/Documents/projects/cfn-secret-provider/tests/test_cfn_secret_provider.py'
S'test_cfn_secret_provider'
Ntp13
sI2
(S'/Users/mark/Documents/projects/cfn-secret-provider/src/cfn_provider.py'
S'cfn_provider'
Ntp14
sI3
(S'/Users/mark/Documents/projects/cfn-secret-provider/tests/test_cfn_secret_provider.py'
S'test_cfn_secret_provider'
p15
S'test_create'
tp16
sI4
(S'/Users/mark/Documents/projects/cfn-secret-provider/tests/test_cfn_secret_provider.py'
g15
S'test_prevent_duplicate_create'
tp17
sI5
(S'/Users/mark/Documents/projects/cfn-secret-provider/tests/test_cfn_secret_provider.py'
g15
S'test_update_name'
tp18
sI6
(S'/Users/mark/Documents/projects/cfn-secret-provider/tests/test_cfn_secret_provider.py'
g15
S'test_prevent_duplicate_through_update'
tp19
sI7
(S'/Users/mark/Documents/projects/cfn-secret-provider/tests/test_cfn_secret_provider.py'
g15
S'test_create_no_return_secret'
tp20
sI8
(S'/Users/mark/Documents/projects/cfn-secret-provider/tests/test_cfn_provider.py'
S'test_cfn_provider'
p21
S'test_create'
tp22
sI9
(S'/Users/mark/Documents/projects/cfn-secret-provider/tests/test_cfn_provider.py'
g21
S'test_update_name'
tp23
sI10
(S'/Users/mark/Documents/projects/cfn-secret-provider/tests/test_cfn_secret_provider.py'
S'test_cfn_secret_provider'
p24
S'test_prrequest_duplicate_create'
p25
tp26
sI11
(S'/Users/mark/Documents/projects/cfn-secret-provider/tests/test_cfn_secret_provider.py'
g24
S'test_prrequest_duplicate_through_update'
p27
tp28
ss.